; Function Attrs: mustprogress nofree norecurse nosync nounwind memory(readwrite, inaccessiblemem: none) uwtable
define hidden noundef zeroext i1 @_ZN18VM_RedefineClasses49rewrite_cp_refs_in_permitted_subclasses_attributeEP13InstanceKlass(ptr nocapture noundef nonnull readonly align 8 dereferenceable(192) %0, ptr nocapture noundef readonly %1) local_unnamed_addr #5 align 2 {
  %3 = getelementptr inbounds i8, ptr %1, i64 256
  %4 = load ptr, ptr %3, align 8
  %5 = load i32, ptr %4, align 4
  %6 = icmp sgt i32 %5, 0
  br i1 %6, label %.lr.ph, label %._crit_edge

.lr.ph:                                           ; preds = %2
  %7 = getelementptr inbounds i8, ptr %4, i64 4
  %8 = getelementptr inbounds i8, ptr %0, i64 44
  %9 = getelementptr inbounds i8, ptr %0, i64 48
  %wide.trip.count = zext nneg i32 %5 to i64
  br label %10

10:                                               ; preds = %.lr.ph, %_ZN18VM_RedefineClasses14find_new_indexEi.exit
  %indvars.iv = phi i64 [ 0, %.lr.ph ], [ %indvars.iv.next, %_ZN18VM_RedefineClasses14find_new_indexEi.exit ]
  %11 = getelementptr inbounds i16, ptr %7, i64 %indvars.iv
  %12 = load i16, ptr %11, align 2
  %13 = load i32, ptr %8, align 4
  %14 = icmp eq i32 %13, 0
  %15 = icmp eq i16 %12, 0
  %or.cond.i = or i1 %15, %14
  br i1 %or.cond.i, label %_ZN18VM_RedefineClasses14find_new_indexEi.exit, label %16

16:                                               ; preds = %10
  %17 = zext i16 %12 to i32
  %18 = load ptr, ptr %9, align 8
  %19 = load i32, ptr %18, align 4
  %.not.i = icmp sgt i32 %19, %17
  br i1 %.not.i, label %20, label %_ZN18VM_RedefineClasses14find_new_indexEi.exit

20:                                               ; preds = %16
  %21 = getelementptr inbounds i8, ptr %18, i64 8
  %22 = load ptr, ptr %21, align 8
  %23 = zext i16 %12 to i64
  %24 = getelementptr inbounds i32, ptr %22, i64 %23
  %25 = load i32, ptr %24, align 4
  %26 = icmp eq i32 %25, -1
  %27 = trunc i32 %25 to i16
  %spec.select.i = select i1 %26, i16 0, i16 %27
  br label %_ZN18VM_RedefineClasses14find_new_indexEi.exit

_ZN18VM_RedefineClasses14find_new_indexEi.exit:   ; preds = %10, %16, %20
  %.0.i = phi i16 [ 0, %10 ], [ 0, %16 ], [ %spec.select.i, %20 ]
  store i16 %.0.i, ptr %11, align 2
  %indvars.iv.next = add nuw nsw i64 %indvars.iv, 1
  %exitcond.not = icmp eq i64 %indvars.iv.next, %wide.trip.count
  br i1 %exitcond.not, label %._crit_edge, label %10, !llvm.loop !47

._crit_edge:                                      ; preds = %_ZN18VM_RedefineClasses14find_new_indexEi.exit, %2
  ret i1 true
}